; Function Attrs: mustprogress nounwind uwtable
define internal noundef zeroext i1 @"_ZNSt17_Function_handlerIFvvEZN4node4quic7SessionC1ENS1_17BaseObjectPtrImplINS2_8EndpointELb0EEEN2v85LocalINS7_6ObjectEEERKNS3_6ConfigEE3$_1E10_M_managerERSt9_Any_dataRKSG_St18_Manager_operation"(ptr nocapture noundef nonnull align 8 dereferenceable(16) %__dest, ptr nocapture noundef nonnull readonly align 8 dereferenceable(16) %__source, i32 noundef %__op) #5 align 2 {
entry:
  switch i32 %__op, label %sw.epilog [
    i32 1, label %sw.bb
    i32 0, label %sw.bb.i
    i32 3, label %sw.bb6.i
    i32 2, label %sw.bb4.i
  ]

sw.bb:                                            ; preds = %entry
  %__source.val = load ptr, ptr %__source, align 8
  store ptr %__source.val, ptr %__dest, align 8
  br label %sw.epilog

sw.bb.i:                                          ; preds = %entry
  store ptr null, ptr %__dest, align 8
  br label %sw.epilog

sw.bb4.i:                                         ; preds = %entry
  %__source.val4 = load ptr, ptr %__source, align 8
  %call5.val.i = load ptr, ptr %__source.val4, align 8
  %0 = getelementptr i8, ptr %__source.val4, i64 8
  %call5.val5.i = load ptr, ptr %0, align 8
  %call.i.i.i = tail call noalias noundef nonnull dereferenceable(16) ptr @_Znwm(i64 noundef 16) #32
  store ptr %call5.val.i, ptr %call.i.i.i, align 8
  %1 = getelementptr inbounds i8, ptr %call.i.i.i, i64 8
  store ptr null, ptr %1, align 8
  %cmp.i.i.i.i.i.i = icmp eq ptr %call5.val5.i, null
  br i1 %cmp.i.i.i.i.i.i, label %"_ZNSt14_Function_base13_Base_managerIZN4node4quic7SessionC1ENS1_17BaseObjectPtrImplINS2_8EndpointELb0EEEN2v85LocalINS7_6ObjectEEERKNS3_6ConfigEE3$_1E15_M_init_functorIRKSE_EEvRSt9_Any_dataOT_.exit.i", label %_ZNK4node17BaseObjectPtrImplINS_4quic7SessionELb0EE12pointer_dataEv.exit.i.i.i.i.i.i

_ZNK4node17BaseObjectPtrImplINS_4quic7SessionELb0EE12pointer_dataEv.exit.i.i.i.i.i.i: ; preds = %sw.bb4.i
  store ptr %call5.val5.i, ptr %1, align 8
  %call3.i.i.i.i.i.i.i = tail call noundef ptr @_ZN4node10BaseObject12pointer_dataEv(ptr noundef nonnull align 8 dereferenceable(32) %call5.val5.i) #28
  %cmp2.not.i.i.i.i.i.i = icmp eq ptr %call3.i.i.i.i.i.i.i, null
  br i1 %cmp2.not.i.i.i.i.i.i, label %do.body6.i.i.i.i.i.i, label %do.end8.i.i.i.i.i.i

do.body6.i.i.i.i.i.i:                             ; preds = %_ZNK4node17BaseObjectPtrImplINS_4quic7SessionELb0EE12pointer_dataEv.exit.i.i.i.i.i.i
  tail call void @_ZN4node6AssertERKNS_13AssertionInfoE(ptr noundef nonnull align 8 dereferenceable(24) @_ZZN4node17BaseObjectPtrImplINS_4quic7SessionELb0EEC1EPS2_E4args_0) #28
  tail call void @abort() #29
  unreachable

do.end8.i.i.i.i.i.i:                              ; preds = %_ZNK4node17BaseObjectPtrImplINS_4quic7SessionELb0EE12pointer_dataEv.exit.i.i.i.i.i.i
  tail call void @_ZN4node10BaseObject17increase_refcountEv(ptr noundef nonnull align 8 dereferenceable(32) %call5.val5.i) #28
  br label %"_ZNSt14_Function_base13_Base_managerIZN4node4quic7SessionC1ENS1_17BaseObjectPtrImplINS2_8EndpointELb0EEEN2v85LocalINS7_6ObjectEEERKNS3_6ConfigEE3$_1E15_M_init_functorIRKSE_EEvRSt9_Any_dataOT_.exit.i"

"_ZNSt14_Function_base13_Base_managerIZN4node4quic7SessionC1ENS1_17BaseObjectPtrImplINS2_8EndpointELb0EEEN2v85LocalINS7_6ObjectEEERKNS3_6ConfigEE3$_1E15_M_init_functorIRKSE_EEvRSt9_Any_dataOT_.exit.i": ; preds = %do.end8.i.i.i.i.i.i, %sw.bb4.i
  store ptr %call.i.i.i, ptr %__dest, align 8
  br label %sw.epilog

sw.bb6.i:                                         ; preds = %entry
  %__dest.val.i = load ptr, ptr %__dest, align 8
  %isnull.i.i = icmp eq ptr %__dest.val.i, null
  br i1 %isnull.i.i, label %sw.epilog, label %delete.notnull.i.i

delete.notnull.i.i:                               ; preds = %sw.bb6.i
  %2 = getelementptr i8, ptr %__dest.val.i, i64 8
  %.val.i.i = load ptr, ptr %2, align 8
  %cmp.not.i.i.i.i = icmp eq ptr %.val.i.i, null
  br i1 %cmp.not.i.i.i.i, label %"_ZZN4node4quic7SessionC1ENS_17BaseObjectPtrImplINS0_8EndpointELb0EEEN2v85LocalINS5_6ObjectEEERKNS1_6ConfigEEN3$_1D2Ev.exit.i.i", label %if.then.i.i.i.i

if.then.i.i.i.i:                                  ; preds = %delete.notnull.i.i
  tail call void @_ZN4node10BaseObject17decrease_refcountEv(ptr noundef nonnull align 8 dereferenceable(32) %.val.i.i) #28
  br label %"_ZZN4node4quic7SessionC1ENS_17BaseObjectPtrImplINS0_8EndpointELb0EEEN2v85LocalINS5_6ObjectEEERKNS1_6ConfigEEN3$_1D2Ev.exit.i.i"

"_ZZN4node4quic7SessionC1ENS_17BaseObjectPtrImplINS0_8EndpointELb0EEEN2v85LocalINS5_6ObjectEEERKNS1_6ConfigEEN3$_1D2Ev.exit.i.i": ; preds = %if.then.i.i.i.i, %delete.notnull.i.i
  tail call void @_ZdlPv(ptr noundef nonnull %__dest.val.i) #33
  br label %sw.epilog

sw.epilog:                                        ; preds = %entry, %"_ZZN4node4quic7SessionC1ENS_17BaseObjectPtrImplINS0_8EndpointELb0EEEN2v85LocalINS5_6ObjectEEERKNS1_6ConfigEEN3$_1D2Ev.exit.i.i", %sw.bb6.i, %"_ZNSt14_Function_base13_Base_managerIZN4node4quic7SessionC1ENS1_17BaseObjectPtrImplINS2_8EndpointELb0EEEN2v85LocalINS7_6ObjectEEERKNS3_6ConfigEE3$_1E15_M_init_functorIRKSE_EEvRSt9_Any_dataOT_.exit.i", %sw.bb.i, %sw.bb
  ret i1 false
}